target datalayout = "e-m:e-p270:32:32-p271:32:32-p272:64:64-i64:64-i128:128-f80:128-n8:16:32:64-S128"
target triple = "x86_64-pc-linux-gnu"

%struct.mi_stats_s = type { %struct.mi_stat_count_s, %struct.mi_stat_count_s, %struct.mi_stat_count_s, %struct.mi_stat_count_s, %struct.mi_stat_count_s, %struct.mi_stat_count_s, %struct.mi_stat_count_s, %struct.mi_stat_count_s, %struct.mi_stat_count_s, %struct.mi_stat_count_s, %struct.mi_stat_count_s, %struct.mi_stat_count_s, %struct.mi_stat_count_s, %struct.mi_stat_count_s, %struct.mi_stat_count_s, %struct.mi_stat_counter_s, %struct.mi_stat_counter_s, %struct.mi_stat_counter_s, %struct.mi_stat_counter_s, %struct.mi_stat_counter_s, %struct.mi_stat_counter_s, %struct.mi_stat_counter_s, %struct.mi_stat_counter_s, %struct.mi_stat_counter_s, %struct.mi_stat_counter_s, %struct.mi_stat_counter_s, %struct.mi_stat_counter_s, %struct.mi_stat_counter_s, %struct.mi_stat_counter_s }
%struct.mi_stat_count_s = type { i64, i64, i64, i64 }
%struct.mi_stat_counter_s = type { i64, i64 }

@_mi_stats_main = external global %struct.mi_stats_s, align 64

; Function Attrs: inlinehint nounwind uwtable
define internal void @mi_atomic_maxi64_relaxed(ptr noundef %0, i64 noundef %1) #1 {
  %3 = alloca ptr, align 8
  %4 = alloca i64, align 8
  %5 = alloca i64, align 8
  %6 = alloca i64, align 8
  %7 = alloca i64, align 8
  %8 = alloca i8, align 1
  store ptr %0, ptr %3, align 8, !tbaa !14
  store i64 %1, ptr %4, align 8, !tbaa !8
  call void @llvm.lifetime.start.p0(i64 8, ptr %5) #7
  %9 = load ptr, ptr %3, align 8, !tbaa !14
  %10 = load atomic i64, ptr %9 monotonic, align 8
  store i64 %10, ptr %6, align 8
  %11 = load i64, ptr %6, align 8, !tbaa !8
  store i64 %11, ptr %5, align 8, !tbaa !8
  br label %12

12:                                               ; preds = %32, %2
  %13 = load i64, ptr %5, align 8, !tbaa !8
  %14 = load i64, ptr %4, align 8, !tbaa !8
  %15 = icmp slt i64 %13, %14
  br i1 %15, label %16, label %30

16:                                               ; preds = %12
  %17 = load ptr, ptr %3, align 8, !tbaa !14
  %18 = load i64, ptr %4, align 8, !tbaa !8
  store i64 %18, ptr %7, align 8, !tbaa !8
  %19 = load i64, ptr %5, align 8
  %20 = load i64, ptr %7, align 8
  %21 = cmpxchg weak ptr %17, i64 %19, i64 %20 release monotonic, align 8
  %22 = extractvalue { i64, i1 } %21, 0
  %23 = extractvalue { i64, i1 } %21, 1
  br i1 %23, label %25, label %24

24:                                               ; preds = %16
  store i64 %22, ptr %5, align 8
  br label %25

25:                                               ; preds = %24, %16
  %26 = zext i1 %23 to i8
  store i8 %26, ptr %8, align 1, !tbaa !49
  %27 = load i8, ptr %8, align 1, !tbaa !49, !range !50, !noundef !51
  %28 = trunc i8 %27 to i1
  %29 = xor i1 %28, true
  br label %30

30:                                               ; preds = %25, %12
  %31 = phi i1 [ false, %12 ], [ %29, %25 ]
  br i1 %31, label %32, label %33

32:                                               ; preds = %30
  br label %12, !llvm.loop !52

33:                                               ; preds = %30
  call void @llvm.lifetime.end.p0(i64 8, ptr %5) #7
  ret void
}

; Function Attrs: inlinehint nounwind uwtable
define internal i64 @mi_atomic_addi64_relaxed(ptr noundef %0, i64 noundef %1) #1 {
  %3 = alloca ptr, align 8
  %4 = alloca i64, align 8
  %5 = alloca i64, align 8
  %6 = alloca i64, align 8
  store ptr %0, ptr %3, align 8, !tbaa !14
  store i64 %1, ptr %4, align 8, !tbaa !8
  %7 = load ptr, ptr %3, align 8, !tbaa !14
  %8 = load i64, ptr %4, align 8, !tbaa !8
  store i64 %8, ptr %5, align 8, !tbaa !8
  %9 = load i64, ptr %5, align 8
  %10 = atomicrmw add ptr %7, i64 %9 monotonic, align 8
  store i64 %10, ptr %6, align 8
  %11 = load i64, ptr %6, align 8, !tbaa !8
  ret i64 %11
}

; Function Attrs: nounwind uwtable
define internal zeroext i1 @mi_is_in_main(ptr noundef %0) #0 {
  %2 = alloca ptr, align 8
  store ptr %0, ptr %2, align 8, !tbaa !13
  %3 = load ptr, ptr %2, align 8, !tbaa !13
  %4 = icmp uge ptr %3, @_mi_stats_main
  br i1 %4, label %5, label %8

5:                                                ; preds = %1
  %6 = load ptr, ptr %2, align 8, !tbaa !13
  %7 = icmp ult ptr %6, getelementptr inbounds nuw (i8, ptr @_mi_stats_main, i64 704)
  br label %8

8:                                                ; preds = %5, %1
  %9 = phi i1 [ false, %1 ], [ %7, %5 ]
  ret i1 %9
}

; Function Attrs: nounwind uwtable
define internal void @mi_stat_update(ptr noundef %0, i64 noundef %1) #0 {
  %3 = alloca ptr, align 8
  %4 = alloca i64, align 8
  %5 = alloca i64, align 8
  store ptr %0, ptr %3, align 8, !tbaa !16
  store i64 %1, ptr %4, align 8, !tbaa !8
  %6 = load i64, ptr %4, align 8, !tbaa !8
  %7 = icmp eq i64 %6, 0
  br i1 %7, label %8, label %9

8:                                                ; preds = %2
  br label %78

9:                                                ; preds = %2
  %10 = load ptr, ptr %3, align 8, !tbaa !16
  %11 = call zeroext i1 @mi_is_in_main(ptr noundef %10) #6
  %12 = xor i1 %11, true
  %13 = xor i1 %12, true
  %14 = zext i1 %13 to i32
  %15 = sext i32 %14 to i64
  %16 = call i64 @llvm.expect.i64(i64 %15, i64 0)
  %17 = icmp ne i64 %16, 0
  br i1 %17, label %18, label %42

18:                                               ; preds = %9
  call void @llvm.lifetime.start.p0(i64 8, ptr %5) #7
  %19 = load ptr, ptr %3, align 8, !tbaa !16
  %20 = getelementptr inbounds nuw %struct.mi_stat_count_s, ptr %19, i32 0, i32 3
  %21 = load i64, ptr %4, align 8, !tbaa !8
  %22 = call i64 @mi_atomic_addi64_relaxed(ptr noundef %20, i64 noundef %21) #6
  store i64 %22, ptr %5, align 8, !tbaa !8
  %23 = load ptr, ptr %3, align 8, !tbaa !16
  %24 = getelementptr inbounds nuw %struct.mi_stat_count_s, ptr %23, i32 0, i32 2
  %25 = load i64, ptr %5, align 8, !tbaa !8
  %26 = load i64, ptr %4, align 8, !tbaa !8
  %27 = add nsw i64 %25, %26
  call void @mi_atomic_maxi64_relaxed(ptr noundef %24, i64 noundef %27) #6
  %28 = load i64, ptr %4, align 8, !tbaa !8
  %29 = icmp sgt i64 %28, 0
  br i1 %29, label %30, label %35

30:                                               ; preds = %18
  %31 = load ptr, ptr %3, align 8, !tbaa !16
  %32 = getelementptr inbounds nuw %struct.mi_stat_count_s, ptr %31, i32 0, i32 0
  %33 = load i64, ptr %4, align 8, !tbaa !8
  %34 = call i64 @mi_atomic_addi64_relaxed(ptr noundef %32, i64 noundef %33) #6
  br label %41

35:                                               ; preds = %18
  %36 = load ptr, ptr %3, align 8, !tbaa !16
  %37 = getelementptr inbounds nuw %struct.mi_stat_count_s, ptr %36, i32 0, i32 1
  %38 = load i64, ptr %4, align 8, !tbaa !8
  %39 = sub nsw i64 0, %38
  %40 = call i64 @mi_atomic_addi64_relaxed(ptr noundef %37, i64 noundef %39) #6
  br label %41

41:                                               ; preds = %35, %30
  call void @llvm.lifetime.end.p0(i64 8, ptr %5) #7
  br label %78

42:                                               ; preds = %9
  %43 = load i64, ptr %4, align 8, !tbaa !8
  %44 = load ptr, ptr %3, align 8, !tbaa !16
  %45 = getelementptr inbounds nuw %struct.mi_stat_count_s, ptr %44, i32 0, i32 3
  %46 = load i64, ptr %45, align 8, !tbaa !18
  %47 = add nsw i64 %46, %43
  store i64 %47, ptr %45, align 8, !tbaa !18
  %48 = load ptr, ptr %3, align 8, !tbaa !16
  %49 = getelementptr inbounds nuw %struct.mi_stat_count_s, ptr %48, i32 0, i32 3
  %50 = load i64, ptr %49, align 8, !tbaa !18
  %51 = load ptr, ptr %3, align 8, !tbaa !16
  %52 = getelementptr inbounds nuw %struct.mi_stat_count_s, ptr %51, i32 0, i32 2
  %53 = load i64, ptr %52, align 8, !tbaa !20
  %54 = icmp sgt i64 %50, %53
  br i1 %54, label %55, label %61

55:                                               ; preds = %42
  %56 = load ptr, ptr %3, align 8, !tbaa !16
  %57 = getelementptr inbounds nuw %struct.mi_stat_count_s, ptr %56, i32 0, i32 3
  %58 = load i64, ptr %57, align 8, !tbaa !18
  %59 = load ptr, ptr %3, align 8, !tbaa !16
  %60 = getelementptr inbounds nuw %struct.mi_stat_count_s, ptr %59, i32 0, i32 2
  store i64 %58, ptr %60, align 8, !tbaa !20
  br label %61

61:                                               ; preds = %55, %42
  %62 = load i64, ptr %4, align 8, !tbaa !8
  %63 = icmp sgt i64 %62, 0
  br i1 %63, label %64, label %70

64:                                               ; preds = %61
  %65 = load i64, ptr %4, align 8, !tbaa !8
  %66 = load ptr, ptr %3, align 8, !tbaa !16
  %67 = getelementptr inbounds nuw %struct.mi_stat_count_s, ptr %66, i32 0, i32 0
  %68 = load i64, ptr %67, align 8, !tbaa !21
  %69 = add nsw i64 %68, %65
  store i64 %69, ptr %67, align 8, !tbaa !21
  br label %77

70:                                               ; preds = %61
  %71 = load i64, ptr %4, align 8, !tbaa !8
  %72 = sub nsw i64 0, %71
  %73 = load ptr, ptr %3, align 8, !tbaa !16
  %74 = getelementptr inbounds nuw %struct.mi_stat_count_s, ptr %73, i32 0, i32 1
  %75 = load i64, ptr %74, align 8, !tbaa !22
  %76 = add nsw i64 %75, %72
  store i64 %76, ptr %74, align 8, !tbaa !22
  br label %77

77:                                               ; preds = %70, %64
  br label %78

78:                                               ; preds = %8, %77, %41
  ret void
}

; Function Attrs: nounwind uwtable
define hidden void @_mi_stat_increase(ptr noundef %0, i64 noundef %1) #0 {
  %3 = alloca ptr, align 8
  %4 = alloca i64, align 8
  store ptr %0, ptr %3, align 8, !tbaa !16
  store i64 %1, ptr %4, align 8, !tbaa !8
  %5 = load ptr, ptr %3, align 8, !tbaa !16
  %6 = load i64, ptr %4, align 8, !tbaa !8
  call void @mi_stat_update(ptr noundef %5, i64 noundef %6) #6
  ret void
}