; Function Attrs: nofree norecurse nounwind memory(argmem: readwrite) uwtable
define hidden void @_mi_stat_increase(ptr noundef %0, i64 noundef %1) local_unnamed_addr #1 {
  %3 = icmp eq i64 %1, 0
  br i1 %3, label %mi_stat_update.exit, label %4

4:                                                ; preds = %2
  %5 = icmp uge ptr %0, @_mi_stats_main
  %6 = icmp ult ptr %0, getelementptr inbounds nuw (i8, ptr @_mi_stats_main, i64 704)
  %7 = select i1 %5, i1 %6, i1 false
  %8 = getelementptr inbounds nuw i8, ptr %0, i64 24
  br i1 %7, label %9, label %27, !prof !9

9:                                                ; preds = %4
  %10 = atomicrmw add ptr %8, i64 %1 monotonic, align 8
  %11 = getelementptr inbounds nuw i8, ptr %0, i64 16
  %12 = add nsw i64 %10, %1
  %13 = load atomic i64, ptr %11 monotonic, align 8
  br label %14

14:                                               ; preds = %16, %9
  %.0.i.i = phi i64 [ %13, %9 ], [ %19, %16 ]
  %15 = icmp slt i64 %.0.i.i, %12
  br i1 %15, label %16, label %mi_atomic_maxi64_relaxed.exit.i

16:                                               ; preds = %14
  %17 = cmpxchg weak ptr %11, i64 %.0.i.i, i64 %12 release monotonic, align 8
  %18 = extractvalue { i64, i1 } %17, 1
  %19 = extractvalue { i64, i1 } %17, 0
  br i1 %18, label %mi_atomic_maxi64_relaxed.exit.i, label %14, !llvm.loop !10

mi_atomic_maxi64_relaxed.exit.i:                  ; preds = %16, %14
  %20 = icmp sgt i64 %1, 0
  br i1 %20, label %21, label %23

21:                                               ; preds = %mi_atomic_maxi64_relaxed.exit.i
  %22 = atomicrmw add ptr %0, i64 %1 monotonic, align 8
  br label %mi_stat_update.exit

23:                                               ; preds = %mi_atomic_maxi64_relaxed.exit.i
  %24 = getelementptr inbounds nuw i8, ptr %0, i64 8
  %25 = sub nsw i64 0, %1
  %26 = atomicrmw add ptr %24, i64 %25 monotonic, align 8
  br label %mi_stat_update.exit

27:                                               ; preds = %4
  %28 = load i64, ptr %8, align 8, !tbaa !12
  %29 = add nsw i64 %28, %1
  store i64 %29, ptr %8, align 8, !tbaa !12
  %30 = getelementptr inbounds nuw i8, ptr %0, i64 16
  %31 = load i64, ptr %30, align 8, !tbaa !14
  %32 = icmp sgt i64 %29, %31
  br i1 %32, label %33, label %34

33:                                               ; preds = %27
  store i64 %29, ptr %30, align 8, !tbaa !14
  br label %34

34:                                               ; preds = %33, %27
  %35 = icmp sgt i64 %1, 0
  br i1 %35, label %36, label %39

36:                                               ; preds = %34
  %37 = load i64, ptr %0, align 8, !tbaa !15
  %38 = add nsw i64 %37, %1
  store i64 %38, ptr %0, align 8, !tbaa !15
  br label %mi_stat_update.exit

39:                                               ; preds = %34
  %40 = getelementptr inbounds nuw i8, ptr %0, i64 8
  %41 = load i64, ptr %40, align 8, !tbaa !16
  %42 = sub nsw i64 %41, %1
  store i64 %42, ptr %40, align 8, !tbaa !16
  br label %mi_stat_update.exit

mi_stat_update.exit:                              ; preds = %2, %21, %23, %36, %39
  ret void
}